; Function Attrs: nounwind uwtable
define hidden range(i32 0, 2) i32 @AES_CMAC(ptr noundef %0, ptr noundef %1, i64 noundef %2, ptr noundef %3, i64 noundef %4) local_unnamed_addr #0 {
  %6 = alloca [16 x i8], align 16
  %7 = alloca %struct.cmac_ctx_st, align 8
  %.sroa.gep = getelementptr inbounds nuw i8, ptr %7, i64 168
  %.sroa.gep11 = getelementptr inbounds nuw i8, ptr %7, i64 152
  switch i64 %2, label %72 [
    i64 16, label %8
    i64 32, label %10
  ]

8:                                                ; preds = %5
  %9 = tail call ptr @EVP_aes_128_cbc() #8
  br label %12

10:                                               ; preds = %5
  %11 = tail call ptr @EVP_aes_256_cbc() #8
  br label %12

12:                                               ; preds = %10, %8
  %.08 = phi ptr [ %11, %10 ], [ %9, %8 ]
  call void @llvm.lifetime.start.p0(i64 208, ptr nonnull %7) #8
  call void @EVP_CIPHER_CTX_init(ptr noundef nonnull %7) #8
  %13 = call i32 @CMAC_Init(ptr noundef nonnull %7, ptr noundef %1, i64 noundef %2, ptr noundef %.08, ptr poison)
  %.not = icmp eq i32 %13, 0
  br i1 %.not, label %CMAC_Final.exit, label %14

14:                                               ; preds = %12
  call void @llvm.lifetime.start.p0(i64 16, ptr nonnull %6) #8
  %15 = getelementptr inbounds nuw i8, ptr %7, i64 200
  %16 = load i32, ptr %15, align 8, !tbaa !6
  %.not.i = icmp eq i32 %16, 0
  br i1 %.not.i, label %31, label %17

17:                                               ; preds = %14
  %18 = sub i32 16, %16
  %19 = zext i32 %18 to i64
  %spec.select.i = call i64 @llvm.umin.i64(i64 %4, i64 %19)
  %20 = getelementptr inbounds nuw i8, ptr %7, i64 184
  %21 = zext i32 %16 to i64
  %22 = getelementptr inbounds nuw i8, ptr %20, i64 %21
  call void @llvm.memcpy.p0.p0.i64(ptr nonnull align 1 %22, ptr align 1 %3, i64 %spec.select.i, i1 false)
  %23 = sub i64 %4, %spec.select.i
  %24 = load i32, ptr %15, align 8, !tbaa !6
  %25 = trunc nuw i64 %spec.select.i to i32
  %26 = add i32 %24, %25
  store i32 %26, ptr %15, align 8, !tbaa !6
  %27 = icmp eq i64 %23, 0
  br i1 %27, label %40, label %28

28:                                               ; preds = %17
  %29 = getelementptr inbounds nuw i8, ptr %3, i64 %spec.select.i
  %30 = call i32 @EVP_Cipher(ptr noundef nonnull %7, ptr noundef nonnull %6, ptr noundef nonnull %20, i64 noundef 16) #8
  %.not38.not.i = icmp eq i32 %30, 0
  br i1 %.not38.not.i, label %CMAC_Update.exit.thread, label %31

31:                                               ; preds = %28, %14
  %.031.i = phi ptr [ %29, %28 ], [ %3, %14 ]
  %.030.i = phi i64 [ %23, %28 ], [ %4, %14 ]
  %32 = icmp ugt i64 %.030.i, 16
  br i1 %32, label %.lr.ph.i, label %._crit_edge.i

.lr.ph.i:                                         ; preds = %31, %34
  %.146.i = phi i64 [ %36, %34 ], [ %.030.i, %31 ]
  %.13245.i = phi ptr [ %35, %34 ], [ %.031.i, %31 ]
  %33 = call i32 @EVP_Cipher(ptr noundef nonnull %7, ptr noundef nonnull %6, ptr noundef %.13245.i, i64 noundef 16) #8
  %.not39.i = icmp eq i32 %33, 0
  br i1 %.not39.i, label %CMAC_Update.exit.thread, label %34

34:                                               ; preds = %.lr.ph.i
  %35 = getelementptr inbounds nuw i8, ptr %.13245.i, i64 16
  %36 = add i64 %.146.i, -16
  %37 = icmp ugt i64 %36, 16
  br i1 %37, label %.lr.ph.i, label %._crit_edge.i, !llvm.loop !14

._crit_edge.i:                                    ; preds = %34, %31
  %.132.lcssa.i = phi ptr [ %.031.i, %31 ], [ %35, %34 ]
  %.1.lcssa.i = phi i64 [ %.030.i, %31 ], [ %36, %34 ]
  %38 = getelementptr inbounds nuw i8, ptr %7, i64 184
  call void @llvm.memcpy.p0.p0.i64(ptr nonnull align 8 %38, ptr align 1 %.132.lcssa.i, i64 %.1.lcssa.i, i1 false)
  %39 = trunc nuw nsw i64 %.1.lcssa.i to i32
  store i32 %39, ptr %15, align 8, !tbaa !6
  br label %40

CMAC_Update.exit.thread:                          ; preds = %.lr.ph.i, %28
  call void @llvm.lifetime.end.p0(i64 16, ptr nonnull %6) #8
  br label %CMAC_Final.exit

40:                                               ; preds = %._crit_edge.i, %17
  %41 = phi i32 [ %39, %._crit_edge.i ], [ %26, %17 ]
  call void @llvm.lifetime.end.p0(i64 16, ptr nonnull %6) #8
  %42 = icmp eq ptr %0, null
  br i1 %42, label %CMAC_Final.exit, label %43

43:                                               ; preds = %40
  %.not.i10 = icmp eq i32 %41, 16
  br i1 %.not.i10, label %54, label %44

44:                                               ; preds = %43
  %45 = getelementptr inbounds nuw i8, ptr %7, i64 184
  %46 = zext i32 %41 to i64
  %47 = getelementptr inbounds nuw [16 x i8], ptr %45, i64 0, i64 %46
  store i8 -128, ptr %47, align 1, !tbaa !16
  %48 = load i32, ptr %15, align 8, !tbaa !6
  %49 = zext i32 %48 to i64
  %50 = getelementptr inbounds nuw i8, ptr %45, i64 %49
  %51 = getelementptr inbounds nuw i8, ptr %50, i64 1
  %52 = sub i32 15, %48
  %53 = zext i32 %52 to i64
  call void @llvm.memset.p0.i64(ptr nonnull align 1 %51, i8 0, i64 %53, i1 false)
  br label %54

54:                                               ; preds = %44, %43
  %55 = phi i64 [ 168, %44 ], [ 152, %43 ]
  %56 = getelementptr inbounds nuw i8, ptr %7, i64 184
  %57 = getelementptr inbounds nuw i8, ptr %7, i64 %55
  br label %58

58:                                               ; preds = %58, %54
  %indvars.iv.i = phi i64 [ 0, %54 ], [ %indvars.iv.next.i, %58 ]
  %59 = getelementptr inbounds nuw [16 x i8], ptr %56, i64 0, i64 %indvars.iv.i
  %60 = load i8, ptr %59, align 1, !tbaa !16
  %61 = getelementptr inbounds nuw i8, ptr %57, i64 %indvars.iv.i
  %62 = load i8, ptr %61, align 1, !tbaa !16
  %63 = xor i8 %62, %60
  %64 = getelementptr inbounds nuw i8, ptr %0, i64 %indvars.iv.i
  store i8 %63, ptr %64, align 1, !tbaa !16
  %indvars.iv.next.i = add nuw nsw i64 %indvars.iv.i, 1
  %exitcond.not.i = icmp eq i64 %indvars.iv.next.i, 16
  br i1 %exitcond.not.i, label %65, label %58, !llvm.loop !17

65:                                               ; preds = %58
  %66 = call i32 @EVP_Cipher(ptr noundef nonnull %7, ptr noundef nonnull %0, ptr noundef nonnull %0, i64 noundef 16) #8
  %67 = icmp ne i32 %66, 0
  %68 = zext i1 %67 to i32
  br label %CMAC_Final.exit

CMAC_Final.exit:                                  ; preds = %65, %40, %CMAC_Update.exit.thread, %12
  %69 = phi i32 [ 0, %12 ], [ 0, %CMAC_Update.exit.thread ], [ %68, %65 ], [ 1, %40 ]
  %70 = call i32 @EVP_CIPHER_CTX_cleanup(ptr noundef nonnull %7) #8
  call void @OPENSSL_cleanse(ptr noundef nonnull %.sroa.gep11, i64 noundef 16) #8
  call void @OPENSSL_cleanse(ptr noundef nonnull %.sroa.gep, i64 noundef 16) #8
  %71 = getelementptr inbounds nuw i8, ptr %7, i64 184
  call void @OPENSSL_cleanse(ptr noundef nonnull %71, i64 noundef 16) #8
  call void @llvm.lifetime.end.p0(i64 208, ptr nonnull %7) #8
  br label %72

72:                                               ; preds = %5, %CMAC_Final.exit
  %.0 = phi i32 [ %69, %CMAC_Final.exit ], [ 0, %5 ]
  ret i32 %.0
}